target datalayout = "e-m:e-p270:32:32-p271:32:32-p272:64:64-i64:64-i128:128-f80:128-n8:16:32:64-S128"
target triple = "x86_64-pc-linux-gnu"

@stdout = external global ptr, align 8
@traceFnNestingDepth = internal global i32 0, align 4
@.str.82 = private unnamed_addr constant [6 x i8] c"%s() \00", align 1

; Function Attrs: nounwind uwtable
define internal void @TraceExit(ptr noundef %0, i32 noundef %1, ptr noundef %2, ptr noundef %3) #0 {
  %5 = alloca ptr, align 8
  %6 = alloca i32, align 4
  %7 = alloca ptr, align 8
  %8 = alloca ptr, align 8
  %9 = alloca [500 x i8], align 16
  store ptr %0, ptr %5, align 8, !tbaa !14
  store i32 %1, ptr %6, align 4, !tbaa !18
  store ptr %2, ptr %7, align 8, !tbaa !15
  store ptr %3, ptr %8, align 8, !tbaa !36
  call void @llvm.lifetime.start.p0(i64 500, ptr %9) #12
  %10 = load i32, ptr @traceFnNestingDepth, align 4, !tbaa !18
  %11 = icmp sgt i32 %10, 0
  br i1 %11, label %12, label %15

12:                                               ; preds = %4
  %13 = load i32, ptr @traceFnNestingDepth, align 4, !tbaa !18
  %14 = add nsw i32 %13, -1
  store i32 %14, ptr @traceFnNestingDepth, align 4, !tbaa !18
  br label %15

15:                                               ; preds = %12, %4
  %16 = getelementptr inbounds [500 x i8], ptr %9, i64 0, i64 0
  %17 = load i32, ptr @traceFnNestingDepth, align 4, !tbaa !18
  %18 = mul nsw i32 %17, 3
  %19 = load i32, ptr %6, align 4, !tbaa !18
  %20 = call ptr @utrace_functionName_77(i32 noundef %19)
  %21 = call i32 (ptr, i32, i32, ptr, ...) @utrace_format_77(ptr noundef %16, i32 noundef 500, i32 noundef %18, ptr noundef @.str.82, ptr noundef %20)
  %22 = getelementptr inbounds nuw [500 x i8], ptr %9, i64 0, i64 499
  store i8 0, ptr %22, align 1, !tbaa !20
  %23 = getelementptr inbounds [500 x i8], ptr %9, i64 0, i64 0
  %24 = load ptr, ptr @stdout, align 8, !tbaa !27
  %25 = call i32 @fputs(ptr noundef %23, ptr noundef %24)
  %26 = getelementptr inbounds [500 x i8], ptr %9, i64 0, i64 0
  %27 = load i32, ptr @traceFnNestingDepth, align 4, !tbaa !18
  %28 = mul nsw i32 %27, 3
  %29 = load ptr, ptr %7, align 8, !tbaa !15
  %30 = load ptr, ptr %8, align 8, !tbaa !36
  %31 = call i32 @utrace_vformat_77(ptr noundef %26, i32 noundef 500, i32 noundef %28, ptr noundef %29, ptr noundef %30)
  %32 = getelementptr inbounds nuw [500 x i8], ptr %9, i64 0, i64 499
  store i8 0, ptr %32, align 1, !tbaa !20
  %33 = getelementptr inbounds [500 x i8], ptr %9, i64 0, i64 0
  %34 = load ptr, ptr @stdout, align 8, !tbaa !27
  %35 = call i32 @fputs(ptr noundef %33, ptr noundef %34)
  %36 = load ptr, ptr @stdout, align 8, !tbaa !27
  %37 = call i32 @putc(i32 noundef 10, ptr noundef %36)
  call void @llvm.lifetime.end.p0(i64 500, ptr %9) #12
  ret void
}