; Function Attrs: nounwind uwtable
define internal void @TraceExit(ptr readnone captures(none) %0, i32 noundef %1, ptr noundef %2, ptr noundef %3) #0 {
  %5 = alloca [500 x i8], align 16
  call void @llvm.lifetime.start.p0(i64 500, ptr nonnull %5) #23
  %6 = load i32, ptr @traceFnNestingDepth, align 4, !tbaa !18
  %7 = icmp sgt i32 %6, 0
  br i1 %7, label %8, label %10

8:                                                ; preds = %4
  %9 = add nsw i32 %6, -1
  store i32 %9, ptr @traceFnNestingDepth, align 4, !tbaa !18
  br label %10

10:                                               ; preds = %8, %4
  %11 = phi i32 [ %9, %8 ], [ %6, %4 ]
  %12 = mul nsw i32 %11, 3
  %13 = tail call ptr @utrace_functionName_77(i32 noundef %1) #23
  %14 = call i32 (ptr, i32, i32, ptr, ...) @utrace_format_77(ptr noundef nonnull %5, i32 noundef 500, i32 noundef %12, ptr noundef nonnull @.str.82, ptr noundef %13) #23
  %15 = getelementptr inbounds nuw i8, ptr %5, i64 499
  store i8 0, ptr %15, align 1, !tbaa !11
  %16 = load ptr, ptr @stdout, align 8, !tbaa !16
  %17 = call i32 @fputs(ptr noundef nonnull %5, ptr noundef %16)
  %18 = load i32, ptr @traceFnNestingDepth, align 4, !tbaa !18
  %19 = mul nsw i32 %18, 3
  %20 = call i32 @utrace_vformat_77(ptr noundef nonnull %5, i32 noundef 500, i32 noundef %19, ptr noundef %2, ptr noundef %3) #23
  store i8 0, ptr %15, align 1, !tbaa !11
  %21 = load ptr, ptr @stdout, align 8, !tbaa !16
  %22 = call i32 @fputs(ptr noundef nonnull %5, ptr noundef %21)
  %23 = load ptr, ptr @stdout, align 8, !tbaa !16
  %24 = call i32 @putc(i32 noundef 10, ptr noundef %23)
  call void @llvm.lifetime.end.p0(i64 500, ptr nonnull %5) #23
  ret void
}